target datalayout = "e-m:e-p270:32:32-p271:32:32-p272:64:64-i64:64-i128:128-f80:128-n8:16:32:64-S128"
target triple = "x86_64-pc-linux-gnu"

%"class.icu_77::UObject" = type { ptr }
%"class.icu_77::UnicodeString" = type { %"class.icu_77::Replaceable", %"union.icu_77::UnicodeString::StackBufferOrFields" }
%"class.icu_77::Replaceable" = type { %"class.icu_77::UObject" }
%"union.icu_77::UnicodeString::StackBufferOrFields" = type { %struct.anon.0, [32 x i8] }
%struct.anon.0 = type { i16, i32, i32, ptr }
%struct.anon = type { i16, [27 x i16] }
%"class.icu_77::FilteredNormalizer2" = type { %"class.icu_77::Normalizer2", ptr, ptr }
%"class.icu_77::Normalizer2" = type { %"class.icu_77::UObject" }

@_ZTVN6icu_777UObjectE = available_externally unnamed_addr constant { [5 x ptr] } { [5 x ptr] [ptr null, ptr @_ZTIN6icu_777UObjectE, ptr @_ZN6icu_777UObjectD1Ev, ptr @_ZN6icu_777UObjectD0Ev, ptr @_ZNK6icu_777UObject17getDynamicClassIDEv] }, align 8

; Function Attrs: inlinehint mustprogress nounwind uwtable
define linkonce_odr void @_ZN6icu_777UObjectC2Ev(ptr noundef nonnull align 8 dereferenceable(8) %0) unnamed_addr #3 comdat align 2 {
  %2 = alloca ptr, align 8
  store ptr %0, ptr %2, align 8, !tbaa !30
  %3 = load ptr, ptr %2, align 8
  store ptr getelementptr inbounds inrange(-16, 24) ({ [5 x ptr] }, ptr @_ZTVN6icu_777UObjectE, i32 0, i32 0, i32 2), ptr %3, align 8, !tbaa !12
  ret void
}

; Function Attrs: inlinehint mustprogress nounwind uwtable
define linkonce_odr void @_ZN6icu_7711Normalizer2C2Ev(ptr noundef nonnull align 8 dereferenceable(8) %0) unnamed_addr #3 comdat align 2 {
  %2 = alloca ptr, align 8
  store ptr %0, ptr %2, align 8, !tbaa !46
  %3 = load ptr, ptr %2, align 8
  call void @_ZN6icu_777UObjectC2Ev(ptr noundef nonnull align 8 dereferenceable(8) %3) #9
  store ptr getelementptr inbounds inrange(-16, 144) ({ [20 x ptr] }, ptr @_ZTVN6icu_7711Normalizer2E, i32 0, i32 0, i32 2), ptr %3, align 8, !tbaa !12
  ret void
}

; Function Attrs: inlinehint mustprogress nounwind uwtable
define linkonce_odr void @_ZN6icu_7711ReplaceableC2Ev(ptr noundef nonnull align 8 dereferenceable(8) %0) unnamed_addr #3 comdat align 2 {
  %2 = alloca ptr, align 8
  store ptr %0, ptr %2, align 8, !tbaa !58
  %3 = load ptr, ptr %2, align 8
  call void @_ZN6icu_777UObjectC2Ev(ptr noundef nonnull align 8 dereferenceable(8) %3) #9
  store ptr getelementptr inbounds inrange(-16, 88) ({ [13 x ptr] }, ptr @_ZTVN6icu_7711ReplaceableE, i32 0, i32 0, i32 2), ptr %3, align 8, !tbaa !12
  ret void
}

; Function Attrs: mustprogress nounwind uwtable
define linkonce_odr void @_ZN6icu_7719FilteredNormalizer2C2ERKNS_11Normalizer2ERKNS_10UnicodeSetE(ptr noundef nonnull align 8 dereferenceable(24) %0, ptr noundef nonnull align 8 dereferenceable(8) %1, ptr noundef nonnull align 8 dereferenceable(200) %2) unnamed_addr #0 comdat align 2 {
  %4 = alloca ptr, align 8
  %5 = alloca ptr, align 8
  %6 = alloca ptr, align 8
  store ptr %0, ptr %4, align 8, !tbaa !45
  store ptr %1, ptr %5, align 8, !tbaa !46
  store ptr %2, ptr %6, align 8, !tbaa !47
  %7 = load ptr, ptr %4, align 8
  call void @_ZN6icu_7711Normalizer2C2Ev(ptr noundef nonnull align 8 dereferenceable(8) %7) #9
  store ptr getelementptr inbounds inrange(-16, 144) ({ [20 x ptr] }, ptr @_ZTVN6icu_7719FilteredNormalizer2E, i32 0, i32 0, i32 2), ptr %7, align 8, !tbaa !12
  %8 = getelementptr inbounds nuw %"class.icu_77::FilteredNormalizer2", ptr %7, i32 0, i32 1
  %9 = load ptr, ptr %5, align 8, !tbaa !46
  store ptr %9, ptr %8, align 8, !tbaa !46
  %10 = getelementptr inbounds nuw %"class.icu_77::FilteredNormalizer2", ptr %7, i32 0, i32 2
  %11 = load ptr, ptr %6, align 8, !tbaa !47
  store ptr %11, ptr %10, align 8, !tbaa !47
  ret void
}

; Function Attrs: inlinehint mustprogress uwtable
define linkonce_odr void @_ZN6icu_7713UnicodeStringC2Ev(ptr noundef nonnull align 8 dereferenceable(64) %0) unnamed_addr #6 comdat align 2 {
  %2 = alloca ptr, align 8
  store ptr %0, ptr %2, align 8, !tbaa !8
  %3 = load ptr, ptr %2, align 8
  call void @_ZN6icu_7711ReplaceableC2Ev(ptr noundef nonnull align 8 dereferenceable(8) %3)
  store ptr getelementptr inbounds inrange(-16, 88) ({ [13 x ptr] }, ptr @_ZTVN6icu_7713UnicodeStringE, i32 0, i32 0, i32 2), ptr %3, align 8, !tbaa !12
  %4 = getelementptr inbounds nuw %"class.icu_77::UnicodeString", ptr %3, i32 0, i32 1
  %5 = getelementptr inbounds nuw %struct.anon, ptr %4, i32 0, i32 0
  store i16 2, ptr %5, align 8, !tbaa !32
  ret void
}

; Function Attrs: inlinehint mustprogress nounwind uwtable
define internal noundef signext i8 @_ZL9U_SUCCESS10UErrorCode(i32 noundef %0) #3 {
  %2 = alloca i32, align 4
  store i32 %0, ptr %2, align 4, !tbaa !33
  %3 = load i32, ptr %2, align 4, !tbaa !33
  %4 = icmp sle i32 %3, 0
  %5 = zext i1 %4 to i8
  ret i8 %5
}

; Function Attrs: inlinehint mustprogress nounwind uwtable
define internal noundef signext i8 @_ZL9U_FAILURE10UErrorCode(i32 noundef %0) #3 {
  %2 = alloca i32, align 4
  store i32 %0, ptr %2, align 4, !tbaa !33
  %3 = load i32, ptr %2, align 4, !tbaa !33
  %4 = icmp sgt i32 %3, 0
  %5 = zext i1 %4 to i8
  ret i8 %5
}

; Function Attrs: inlinehint mustprogress nounwind uwtable
define linkonce_odr noundef signext i8 @_ZNK6icu_7713UnicodeString7isBogusEv(ptr noundef nonnull align 8 dereferenceable(64) %0) #3 comdat align 2 {
  %2 = alloca ptr, align 8
  store ptr %0, ptr %2, align 8, !tbaa !8
  %3 = load ptr, ptr %2, align 8
  %4 = getelementptr inbounds nuw %"class.icu_77::UnicodeString", ptr %3, i32 0, i32 1
  %5 = getelementptr inbounds nuw %struct.anon.0, ptr %4, i32 0, i32 0
  %6 = load i16, ptr %5, align 8, !tbaa !32
  %7 = sext i16 %6 to i32
  %8 = and i32 %7, 1
  %9 = trunc i32 %8 to i8
  ret i8 %9
}

; Function Attrs: mustprogress uwtable
define noundef nonnull align 8 dereferenceable(64) ptr @_ZN6icu_7710Normalizer11concatenateERKNS_13UnicodeStringES3_RS1_18UNormalizationModeiR10UErrorCode(ptr noundef nonnull align 8 dereferenceable(64) %0, ptr noundef nonnull align 8 dereferenceable(64) %1, ptr noundef nonnull align 8 dereferenceable(64) %2, i32 noundef %3, i32 noundef %4, ptr noundef nonnull align 4 dereferenceable(4) %5) #1 align 2 personality ptr @__gxx_personality_v0 {
  %7 = alloca ptr, align 8
  %8 = alloca ptr, align 8
  %9 = alloca ptr, align 8
  %10 = alloca i32, align 4
  %11 = alloca i32, align 4
  %12 = alloca ptr, align 8
  %13 = alloca %"class.icu_77::UnicodeString", align 8
  %14 = alloca ptr, align 8
  %15 = alloca ptr, align 8
  %16 = alloca i32, align 4
  %17 = alloca ptr, align 8
  %18 = alloca %"class.icu_77::FilteredNormalizer2", align 8
  store ptr %0, ptr %7, align 8, !tbaa !8
  store ptr %1, ptr %8, align 8, !tbaa !8
  store ptr %2, ptr %9, align 8, !tbaa !8
  store i32 %3, ptr %10, align 4, !tbaa !10
  store i32 %4, ptr %11, align 4, !tbaa !37
  store ptr %5, ptr %12, align 8, !tbaa !49
  %19 = load ptr, ptr %7, align 8, !tbaa !8
  %20 = call noundef signext i8 @_ZNK6icu_7713UnicodeString7isBogusEv(ptr noundef nonnull align 8 dereferenceable(64) %19)
  %21 = icmp ne i8 %20, 0
  br i1 %21, label %31, label %22

22:                                               ; preds = %6
  %23 = load ptr, ptr %8, align 8, !tbaa !8
  %24 = call noundef signext i8 @_ZNK6icu_7713UnicodeString7isBogusEv(ptr noundef nonnull align 8 dereferenceable(64) %23)
  %25 = icmp ne i8 %24, 0
  br i1 %25, label %31, label %26

26:                                               ; preds = %22
  %27 = load ptr, ptr %12, align 8, !tbaa !49
  %28 = load i32, ptr %27, align 4, !tbaa !33
  %29 = call noundef signext i8 @_ZL9U_FAILURE10UErrorCode(i32 noundef %28)
  %30 = icmp ne i8 %29, 0
  br i1 %30, label %31, label %40

31:                                               ; preds = %26, %22, %6
  %32 = load ptr, ptr %9, align 8, !tbaa !8
  call void @_ZN6icu_7713UnicodeString10setToBogusEv(ptr noundef nonnull align 8 dereferenceable(64) %32)
  %33 = load ptr, ptr %12, align 8, !tbaa !49
  %34 = load i32, ptr %33, align 4, !tbaa !33
  %35 = call noundef signext i8 @_ZL9U_SUCCESS10UErrorCode(i32 noundef %34)
  %36 = icmp ne i8 %35, 0
  br i1 %36, label %37, label %39

37:                                               ; preds = %31
  %38 = load ptr, ptr %12, align 8, !tbaa !49
  store i32 1, ptr %38, align 4, !tbaa !33
  br label %39

39:                                               ; preds = %37, %31
  br label %121

40:                                               ; preds = %26
  call void @llvm.lifetime.start.p0(i64 64, ptr %13) #9
  call void @_ZN6icu_7713UnicodeStringC2Ev(ptr noundef nonnull align 8 dereferenceable(64) %13)
  call void @llvm.lifetime.start.p0(i64 8, ptr %14) #9
  %41 = load ptr, ptr %8, align 8, !tbaa !8
  %42 = load ptr, ptr %9, align 8, !tbaa !8
  %43 = icmp ne ptr %41, %42
  br i1 %43, label %44, label %46

44:                                               ; preds = %40
  %45 = load ptr, ptr %9, align 8, !tbaa !8
  store ptr %45, ptr %14, align 8, !tbaa !8
  br label %47

46:                                               ; preds = %40
  store ptr %13, ptr %14, align 8, !tbaa !8
  br label %47

47:                                               ; preds = %46, %44
  %48 = load ptr, ptr %7, align 8, !tbaa !8
  %49 = load ptr, ptr %14, align 8, !tbaa !8
  %50 = invoke noundef nonnull align 8 dereferenceable(64) ptr @_ZN6icu_7713UnicodeStringaSERKS0_(ptr noundef nonnull align 8 dereferenceable(64) %49, ptr noundef nonnull align 8 dereferenceable(64) %48)
          to label %51 unwind label %76

51:                                               ; preds = %47
  call void @llvm.lifetime.start.p0(i64 8, ptr %17) #9
  %52 = load i32, ptr %10, align 4, !tbaa !10
  %53 = load ptr, ptr %12, align 8, !tbaa !49
  %54 = invoke noundef ptr @_ZN6icu_7718Normalizer2Factory11getInstanceE18UNormalizationModeR10UErrorCode(i32 noundef %52, ptr noundef nonnull align 4 dereferenceable(4) %53)
          to label %55 unwind label %80

55:                                               ; preds = %51
  store ptr %54, ptr %17, align 8, !tbaa !46
  %56 = load ptr, ptr %12, align 8, !tbaa !49
  %57 = load i32, ptr %56, align 4, !tbaa !33
  %58 = invoke noundef signext i8 @_ZL9U_SUCCESS10UErrorCode(i32 noundef %57)
          to label %59 unwind label %80

59:                                               ; preds = %55
  %60 = icmp ne i8 %58, 0
  br i1 %60, label %61, label %104

61:                                               ; preds = %59
  %62 = load i32, ptr %11, align 4, !tbaa !37
  %63 = and i32 %62, 32
  %64 = icmp ne i32 %63, 0
  br i1 %64, label %65, label %93

65:                                               ; preds = %61
  call void @llvm.lifetime.start.p0(i64 24, ptr %18) #9
  %66 = load ptr, ptr %17, align 8, !tbaa !46
  %67 = load ptr, ptr %12, align 8, !tbaa !49
  %68 = invoke ptr @uniset_getUnicode32Instance_77(ptr noundef nonnull align 4 dereferenceable(4) %67)
          to label %69 unwind label %84

69:                                               ; preds = %65
  invoke void @_ZN6icu_7719FilteredNormalizer2C2ERKNS_11Normalizer2ERKNS_10UnicodeSetE(ptr noundef nonnull align 8 dereferenceable(24) %18, ptr noundef nonnull align 8 dereferenceable(8) %66, ptr noundef nonnull align 8 dereferenceable(200) %68)
          to label %70 unwind label %84

70:                                               ; preds = %69
  %71 = load ptr, ptr %14, align 8, !tbaa !8
  %72 = load ptr, ptr %8, align 8, !tbaa !8
  %73 = load ptr, ptr %12, align 8, !tbaa !49
  %74 = invoke noundef nonnull align 8 dereferenceable(64) ptr @_ZNK6icu_7719FilteredNormalizer26appendERNS_13UnicodeStringERKS1_R10UErrorCode(ptr noundef nonnull align 8 dereferenceable(24) %18, ptr noundef nonnull align 8 dereferenceable(64) %71, ptr noundef nonnull align 8 dereferenceable(64) %72, ptr noundef nonnull align 4 dereferenceable(4) %73)
          to label %75 unwind label %88

75:                                               ; preds = %70
  call void @_ZN6icu_7719FilteredNormalizer2D1Ev(ptr noundef nonnull align 8 dereferenceable(24) %18) #9
  call void @llvm.lifetime.end.p0(i64 24, ptr %18) #9
  br label %103

76:                                               ; preds = %47
  %77 = landingpad { ptr, i32 }
          cleanup
  %78 = extractvalue { ptr, i32 } %77, 0
  store ptr %78, ptr %15, align 8
  %79 = extractvalue { ptr, i32 } %77, 1
  store i32 %79, ptr %16, align 4
  br label %120

80:                                               ; preds = %113, %107, %93, %55, %51
  %81 = landingpad { ptr, i32 }
          cleanup
  %82 = extractvalue { ptr, i32 } %81, 0
  store ptr %82, ptr %15, align 8
  %83 = extractvalue { ptr, i32 } %81, 1
  store i32 %83, ptr %16, align 4
  br label %119

84:                                               ; preds = %69, %65
  %85 = landingpad { ptr, i32 }
          cleanup
  %86 = extractvalue { ptr, i32 } %85, 0
  store ptr %86, ptr %15, align 8
  %87 = extractvalue { ptr, i32 } %85, 1
  store i32 %87, ptr %16, align 4
  br label %92

88:                                               ; preds = %70
  %89 = landingpad { ptr, i32 }
          cleanup
  %90 = extractvalue { ptr, i32 } %89, 0
  store ptr %90, ptr %15, align 8
  %91 = extractvalue { ptr, i32 } %89, 1
  store i32 %91, ptr %16, align 4
  call void @_ZN6icu_7719FilteredNormalizer2D1Ev(ptr noundef nonnull align 8 dereferenceable(24) %18) #9
  br label %92

92:                                               ; preds = %88, %84
  call void @llvm.lifetime.end.p0(i64 24, ptr %18) #9
  br label %119

93:                                               ; preds = %61
  %94 = load ptr, ptr %17, align 8, !tbaa !46
  %95 = load ptr, ptr %14, align 8, !tbaa !8
  %96 = load ptr, ptr %8, align 8, !tbaa !8
  %97 = load ptr, ptr %12, align 8, !tbaa !49
  %98 = load ptr, ptr %94, align 8, !tbaa !12
  %99 = getelementptr inbounds ptr, ptr %98, i64 6
  %100 = load ptr, ptr %99, align 8
  %101 = invoke noundef nonnull align 8 dereferenceable(64) ptr %100(ptr noundef nonnull align 8 dereferenceable(8) %94, ptr noundef nonnull align 8 dereferenceable(64) %95, ptr noundef nonnull align 8 dereferenceable(64) %96, ptr noundef nonnull align 4 dereferenceable(4) %97)
          to label %102 unwind label %80

102:                                              ; preds = %93
  br label %103

103:                                              ; preds = %102, %75
  br label %104

104:                                              ; preds = %103, %59
  %105 = load ptr, ptr %14, align 8, !tbaa !8
  %106 = icmp eq ptr %105, %13
  br i1 %106, label %107, label %118

107:                                              ; preds = %104
  %108 = load ptr, ptr %12, align 8, !tbaa !49
  %109 = load i32, ptr %108, align 4, !tbaa !33
  %110 = invoke noundef signext i8 @_ZL9U_SUCCESS10UErrorCode(i32 noundef %109)
          to label %111 unwind label %80

111:                                              ; preds = %107
  %112 = icmp ne i8 %110, 0
  br i1 %112, label %113, label %118

113:                                              ; preds = %111
  %114 = load ptr, ptr %14, align 8, !tbaa !8
  %115 = load ptr, ptr %9, align 8, !tbaa !8
  %116 = invoke noundef nonnull align 8 dereferenceable(64) ptr @_ZN6icu_7713UnicodeStringaSERKS0_(ptr noundef nonnull align 8 dereferenceable(64) %115, ptr noundef nonnull align 8 dereferenceable(64) %114)
          to label %117 unwind label %80

117:                                              ; preds = %113
  br label %118

118:                                              ; preds = %117, %111, %104
  call void @llvm.lifetime.end.p0(i64 8, ptr %17) #9
  call void @llvm.lifetime.end.p0(i64 8, ptr %14) #9
  call void @_ZN6icu_7713UnicodeStringD1Ev(ptr noundef nonnull align 8 dereferenceable(64) %13) #9
  call void @llvm.lifetime.end.p0(i64 64, ptr %13) #9
  br label %121

119:                                              ; preds = %92, %80
  call void @llvm.lifetime.end.p0(i64 8, ptr %17) #9
  br label %120

120:                                              ; preds = %119, %76
  call void @llvm.lifetime.end.p0(i64 8, ptr %14) #9
  call void @_ZN6icu_7713UnicodeStringD1Ev(ptr noundef nonnull align 8 dereferenceable(64) %13) #9
  call void @llvm.lifetime.end.p0(i64 64, ptr %13) #9
  br label %123

121:                                              ; preds = %118, %39
  %122 = load ptr, ptr %9, align 8, !tbaa !8
  ret ptr %122

123:                                              ; preds = %120
  %124 = load ptr, ptr %15, align 8
  %125 = load i32, ptr %16, align 4
  %126 = insertvalue { ptr, i32 } poison, ptr %124, 0
  %127 = insertvalue { ptr, i32 } %126, i32 %125, 1
  resume { ptr, i32 } %127
}