; Function Attrs: mustprogress uwtable
define noundef nonnull align 8 dereferenceable(64) ptr @_ZN6icu_7710Normalizer11concatenateERKNS_13UnicodeStringES3_RS1_18UNormalizationModeiR10UErrorCode(ptr noundef nonnull align 8 dereferenceable(64) %0, ptr noundef nonnull align 8 dereferenceable(64) %1, ptr noundef nonnull returned align 8 dereferenceable(64) %2, i32 noundef %3, i32 noundef %4, ptr noundef nonnull align 4 dereferenceable(4) %5) local_unnamed_addr #1 align 2 personality ptr @__gxx_personality_v0 {
  %7 = alloca %"class.icu_77::UnicodeString", align 8
  %8 = alloca %"class.icu_77::FilteredNormalizer2", align 8
  %9 = getelementptr inbounds nuw i8, ptr %0, i64 8
  %10 = load i16, ptr %9, align 8, !tbaa !22
  %11 = and i16 %10, 1
  %.not = icmp eq i16 %11, 0
  br i1 %.not, label %12, label %18

12:                                               ; preds = %6
  %13 = getelementptr inbounds nuw i8, ptr %1, i64 8
  %14 = load i16, ptr %13, align 8, !tbaa !22
  %15 = and i16 %14, 1
  %.not35 = icmp eq i16 %15, 0
  %16 = load i32, ptr %5, align 4
  %17 = icmp slt i32 %16, 1
  %or.cond = select i1 %.not35, i1 %17, i1 false
  br i1 %or.cond, label %22, label %18

18:                                               ; preds = %12, %6
  tail call void @_ZN6icu_7713UnicodeString10setToBogusEv(ptr noundef nonnull align 8 dereferenceable(64) %2)
  %19 = load i32, ptr %5, align 4, !tbaa !24
  %20 = icmp sgt i32 %19, 0
  br i1 %20, label %61, label %21

21:                                               ; preds = %18
  store i32 1, ptr %5, align 4, !tbaa !24
  br label %61

22:                                               ; preds = %12
  call void @llvm.lifetime.start.p0(i64 64, ptr nonnull %7) #10
  store ptr getelementptr inbounds nuw inrange(-16, 88) (i8, ptr @_ZTVN6icu_7713UnicodeStringE, i64 16), ptr %7, align 8, !tbaa !3
  %23 = getelementptr inbounds nuw i8, ptr %7, i64 8
  store i16 2, ptr %23, align 8, !tbaa !22
  %.not37 = icmp eq ptr %1, %2
  %. = select i1 %.not37, ptr %7, ptr %2
  %24 = invoke noundef nonnull align 8 dereferenceable(64) ptr @_ZN6icu_7713UnicodeStringaSERKS0_(ptr noundef nonnull align 8 dereferenceable(64) %., ptr noundef nonnull align 8 dereferenceable(64) %0)
          to label %25 unwind label %39

25:                                               ; preds = %22
  %26 = invoke noundef ptr @_ZN6icu_7718Normalizer2Factory11getInstanceE18UNormalizationModeR10UErrorCode(i32 noundef %3, ptr noundef nonnull align 4 dereferenceable(4) %5)
          to label %27 unwind label %41

27:                                               ; preds = %25
  %28 = load i32, ptr %5, align 4, !tbaa !24
  %29 = icmp sgt i32 %28, 0
  br i1 %29, label %53, label %30

30:                                               ; preds = %27
  %31 = and i32 %4, 32
  %.not39 = icmp eq i32 %31, 0
  br i1 %.not39, label %48, label %32

32:                                               ; preds = %30
  call void @llvm.lifetime.start.p0(i64 24, ptr nonnull %8) #10
  %33 = invoke ptr @uniset_getUnicode32Instance_77(ptr noundef nonnull align 4 dereferenceable(4) %5)
          to label %34 unwind label %43

34:                                               ; preds = %32
  store ptr getelementptr inbounds nuw inrange(-16, 144) (i8, ptr @_ZTVN6icu_7719FilteredNormalizer2E, i64 16), ptr %8, align 8, !tbaa !3
  %35 = getelementptr inbounds nuw i8, ptr %8, i64 8
  store ptr %26, ptr %35, align 8, !tbaa !28
  %36 = getelementptr inbounds nuw i8, ptr %8, i64 16
  store ptr %33, ptr %36, align 8, !tbaa !29
  %37 = invoke noundef nonnull align 8 dereferenceable(64) ptr @_ZNK6icu_7719FilteredNormalizer26appendERNS_13UnicodeStringERKS1_R10UErrorCode(ptr noundef nonnull align 8 dereferenceable(24) %8, ptr noundef nonnull align 8 dereferenceable(64) %., ptr noundef nonnull align 8 dereferenceable(64) %1, ptr noundef nonnull align 4 dereferenceable(4) %5)
          to label %38 unwind label %45

38:                                               ; preds = %34
  call void @_ZN6icu_7719FilteredNormalizer2D1Ev(ptr noundef nonnull align 8 dereferenceable(24) %8) #10
  call void @llvm.lifetime.end.p0(i64 24, ptr nonnull %8) #10
  br label %53

39:                                               ; preds = %22
  %40 = landingpad { ptr, i32 }
          cleanup
  br label %60

41:                                               ; preds = %57, %48, %25
  %42 = landingpad { ptr, i32 }
          cleanup
  br label %60

43:                                               ; preds = %32
  %44 = landingpad { ptr, i32 }
          cleanup
  br label %47

45:                                               ; preds = %34
  %46 = landingpad { ptr, i32 }
          cleanup
  call void @_ZN6icu_7719FilteredNormalizer2D1Ev(ptr noundef nonnull align 8 dereferenceable(24) %8) #10
  br label %47

47:                                               ; preds = %45, %43
  %.pn = phi { ptr, i32 } [ %46, %45 ], [ %44, %43 ]
  call void @llvm.lifetime.end.p0(i64 24, ptr nonnull %8) #10
  br label %60

48:                                               ; preds = %30
  %49 = load ptr, ptr %26, align 8, !tbaa !3
  %50 = getelementptr inbounds nuw i8, ptr %49, i64 48
  %51 = load ptr, ptr %50, align 8
  %52 = invoke noundef nonnull align 8 dereferenceable(64) ptr %51(ptr noundef nonnull align 8 dereferenceable(8) %26, ptr noundef nonnull align 8 dereferenceable(64) %., ptr noundef nonnull align 8 dereferenceable(64) %1, ptr noundef nonnull align 4 dereferenceable(4) %5)
          to label %53 unwind label %41

53:                                               ; preds = %38, %48, %27
  %54 = icmp ne ptr %., %7
  %55 = load i32, ptr %5, align 4
  %56 = icmp sgt i32 %55, 0
  %or.cond48 = select i1 %54, i1 true, i1 %56
  br i1 %or.cond48, label %59, label %57

57:                                               ; preds = %53
  %58 = invoke noundef nonnull align 8 dereferenceable(64) ptr @_ZN6icu_7713UnicodeStringaSERKS0_(ptr noundef nonnull align 8 dereferenceable(64) %2, ptr noundef nonnull align 8 dereferenceable(64) %.)
          to label %59 unwind label %41

59:                                               ; preds = %57, %53
  call void @_ZN6icu_7713UnicodeStringD1Ev(ptr noundef nonnull align 8 dereferenceable(64) %7) #10
  call void @llvm.lifetime.end.p0(i64 64, ptr nonnull %7) #10
  br label %61

60:                                               ; preds = %41, %47, %39
  %.pn42.pn = phi { ptr, i32 } [ %40, %39 ], [ %42, %41 ], [ %.pn, %47 ]
  call void @_ZN6icu_7713UnicodeStringD1Ev(ptr noundef nonnull align 8 dereferenceable(64) %7) #10
  call void @llvm.lifetime.end.p0(i64 64, ptr nonnull %7) #10
  resume { ptr, i32 } %.pn42.pn

61:                                               ; preds = %18, %21, %59
  ret ptr %2
}